target datalayout = "e-m:e-p270:32:32-p271:32:32-p272:64:64-i64:64-i128:128-f80:128-n8:16:32:64-S128"
target triple = "x86_64-pc-linux-gnu"

%struct.iovec = type { ptr, i64 }
%struct.msghdr = type { ptr, i32, ptr, i64, ptr, i64, i32 }
%struct.cmsghdr = type { i64, i32, i32, [0 x i8] }

@.str = private unnamed_addr constant [25 x i8] c"Can't send to clamd: %s\0A\00", align 1
@__const.send_fdpass.zFILDES = private unnamed_addr constant [8 x i8] c"zFILDES\00", align 1
@.str.7 = private unnamed_addr constant [25 x i8] c"%s: Failed to open file\0A\00", align 1
@.str.8 = private unnamed_addr constant [20 x i8] c"FD send failed: %s\0A\00", align 1

; Function Attrs: nounwind uwtable
define i32 @sendln(i32 noundef %0, ptr noundef %1, i32 noundef %2) #0 {
  %4 = alloca i32, align 4
  %5 = alloca i32, align 4
  %6 = alloca ptr, align 8
  %7 = alloca i32, align 4
  %8 = alloca i32, align 4
  store i32 %0, ptr %5, align 4
  store ptr %1, ptr %6, align 8
  store i32 %2, ptr %7, align 4
  br label %9

9:                                                ; preds = %34, %28, %3
  %10 = load i32, ptr %7, align 4
  %11 = icmp ne i32 %10, 0
  br i1 %11, label %12, label %42

12:                                               ; preds = %9
  %13 = load i32, ptr %5, align 4
  %14 = load ptr, ptr %6, align 8
  %15 = load i32, ptr %7, align 4
  %16 = zext i32 %15 to i64
  %17 = call i64 @send(i32 noundef %13, ptr noundef %14, i64 noundef %16, i32 noundef 0)
  %18 = trunc i64 %17 to i32
  store i32 %18, ptr %8, align 4
  %19 = load i32, ptr %8, align 4
  %20 = icmp sle i32 %19, 0
  br i1 %20, label %21, label %34

21:                                               ; preds = %12
  %22 = load i32, ptr %8, align 4
  %23 = icmp ne i32 %22, 0
  br i1 %23, label %24, label %29

24:                                               ; preds = %21
  %25 = call ptr @__errno_location() #8
  %26 = load i32, ptr %25, align 4
  %27 = icmp eq i32 %26, 4
  br i1 %27, label %28, label %29

28:                                               ; preds = %24
  br label %9

29:                                               ; preds = %24, %21
  %30 = call ptr @__errno_location() #8
  %31 = load i32, ptr %30, align 4
  %32 = call ptr @strerror(i32 noundef %31) #9
  %33 = call i32 (i32, ptr, ...) @logg(i32 noundef 5, ptr noundef @.str, ptr noundef %32)
  store i32 1, ptr %4, align 4
  br label %43

34:                                               ; preds = %12
  %35 = load i32, ptr %8, align 4
  %36 = load ptr, ptr %6, align 8
  %37 = sext i32 %35 to i64
  %38 = getelementptr inbounds i8, ptr %36, i64 %37
  store ptr %38, ptr %6, align 8
  %39 = load i32, ptr %8, align 4
  %40 = load i32, ptr %7, align 4
  %41 = sub i32 %40, %39
  store i32 %41, ptr %7, align 4
  br label %9

42:                                               ; preds = %9
  store i32 0, ptr %4, align 4
  br label %43

43:                                               ; preds = %42, %29
  %44 = load i32, ptr %4, align 4
  ret i32 %44
}

; Function Attrs: nounwind uwtable
define i32 @send_fdpass(i32 noundef %0, ptr noundef %1) #0 {
  %3 = alloca i32, align 4
  %4 = alloca i32, align 4
  %5 = alloca ptr, align 8
  %6 = alloca [1 x %struct.iovec], align 16
  %7 = alloca %struct.msghdr, align 8
  %8 = alloca ptr, align 8
  %9 = alloca [24 x i8], align 16
  %10 = alloca [1 x i8], align 1
  %11 = alloca i32, align 4
  %12 = alloca [8 x i8], align 1
  store i32 %0, ptr %4, align 4
  store ptr %1, ptr %5, align 8
  call void @llvm.memset.p0.i64(ptr align 1 %10, i8 0, i64 1, i1 false)
  call void @llvm.memcpy.p0.p0.i64(ptr align 1 %12, ptr align 1 @__const.send_fdpass.zFILDES, i64 8, i1 false)
  %13 = load ptr, ptr %5, align 8
  %14 = icmp ne ptr %13, null
  br i1 %14, label %15, label %23

15:                                               ; preds = %2
  %16 = load ptr, ptr %5, align 8
  %17 = call i32 (ptr, i32, ...) @open(ptr noundef %16, i32 noundef 0)
  store i32 %17, ptr %11, align 4
  %18 = icmp slt i32 %17, 0
  br i1 %18, label %19, label %22

19:                                               ; preds = %15
  %20 = load ptr, ptr %5, align 8
  %21 = call i32 (i32, ptr, ...) @logg(i32 noundef 0, ptr noundef @.str.7, ptr noundef %20)
  store i32 0, ptr %3, align 4
  br label %76

22:                                               ; preds = %15
  br label %24

23:                                               ; preds = %2
  store i32 0, ptr %11, align 4
  br label %24

24:                                               ; preds = %23, %22
  %25 = load i32, ptr %4, align 4
  %26 = getelementptr inbounds [8 x i8], ptr %12, i64 0, i64 0
  %27 = call i32 @sendln(i32 noundef %25, ptr noundef %26, i32 noundef 8)
  %28 = icmp ne i32 %27, 0
  br i1 %28, label %29, label %32

29:                                               ; preds = %24
  %30 = load i32, ptr %11, align 4
  %31 = call i32 @close(i32 noundef %30)
  store i32 -1, ptr %3, align 4
  br label %76

32:                                               ; preds = %24
  %33 = getelementptr inbounds [1 x i8], ptr %10, i64 0, i64 0
  %34 = getelementptr inbounds [1 x %struct.iovec], ptr %6, i64 0, i64 0
  %35 = getelementptr inbounds %struct.iovec, ptr %34, i32 0, i32 0
  store ptr %33, ptr %35, align 16
  %36 = getelementptr inbounds [1 x %struct.iovec], ptr %6, i64 0, i64 0
  %37 = getelementptr inbounds %struct.iovec, ptr %36, i32 0, i32 1
  store i64 1, ptr %37, align 8
  call void @llvm.memset.p0.i64(ptr align 8 %7, i8 0, i64 56, i1 false)
  %38 = getelementptr inbounds [24 x i8], ptr %9, i64 0, i64 0
  %39 = getelementptr inbounds %struct.msghdr, ptr %7, i32 0, i32 4
  store ptr %38, ptr %39, align 8
  %40 = getelementptr inbounds [1 x %struct.iovec], ptr %6, i64 0, i64 0
  %41 = getelementptr inbounds %struct.msghdr, ptr %7, i32 0, i32 2
  store ptr %40, ptr %41, align 8
  %42 = getelementptr inbounds %struct.msghdr, ptr %7, i32 0, i32 3
  store i64 1, ptr %42, align 8
  %43 = getelementptr inbounds %struct.msghdr, ptr %7, i32 0, i32 5
  store i64 20, ptr %43, align 8
  %44 = getelementptr inbounds %struct.msghdr, ptr %7, i32 0, i32 5
  %45 = load i64, ptr %44, align 8
  %46 = icmp uge i64 %45, 16
  br i1 %46, label %47, label %50

47:                                               ; preds = %32
  %48 = getelementptr inbounds %struct.msghdr, ptr %7, i32 0, i32 4
  %49 = load ptr, ptr %48, align 8
  br label %51

50:                                               ; preds = %32
  br label %51

51:                                               ; preds = %50, %47
  %52 = phi ptr [ %49, %47 ], [ null, %50 ]
  store ptr %52, ptr %8, align 8
  %53 = load ptr, ptr %8, align 8
  %54 = getelementptr inbounds %struct.cmsghdr, ptr %53, i32 0, i32 0
  store i64 20, ptr %54, align 8
  %55 = load ptr, ptr %8, align 8
  %56 = getelementptr inbounds %struct.cmsghdr, ptr %55, i32 0, i32 1
  store i32 1, ptr %56, align 8
  %57 = load ptr, ptr %8, align 8
  %58 = getelementptr inbounds %struct.cmsghdr, ptr %57, i32 0, i32 2
  store i32 1, ptr %58, align 4
  %59 = load i32, ptr %11, align 4
  %60 = load ptr, ptr %8, align 8
  %61 = getelementptr inbounds %struct.cmsghdr, ptr %60, i32 0, i32 3
  %62 = getelementptr inbounds [0 x i8], ptr %61, i64 0, i64 0
  store i32 %59, ptr %62, align 8
  %63 = load i32, ptr %4, align 4
  %64 = call i64 @sendmsg(i32 noundef %63, ptr noundef %7, i32 noundef 0)
  %65 = icmp eq i64 %64, -1
  br i1 %65, label %66, label %73

66:                                               ; preds = %51
  %67 = call ptr @__errno_location() #8
  %68 = load i32, ptr %67, align 4
  %69 = call ptr @strerror(i32 noundef %68) #9
  %70 = call i32 (i32, ptr, ...) @logg(i32 noundef 5, ptr noundef @.str.8, ptr noundef %69)
  %71 = load i32, ptr %11, align 4
  %72 = call i32 @close(i32 noundef %71)
  store i32 -1, ptr %3, align 4
  br label %76

73:                                               ; preds = %51
  %74 = load i32, ptr %11, align 4
  %75 = call i32 @close(i32 noundef %74)
  store i32 1, ptr %3, align 4
  br label %76

76:                                               ; preds = %73, %66, %29, %19
  %77 = load i32, ptr %3, align 4
  ret i32 %77
}