; Function Attrs: nounwind uwtable
define noundef i32 @send_fdpass(i32 noundef %0, ptr noundef %1) local_unnamed_addr #0 {
  %3 = alloca [1 x %struct.iovec], align 16
  %4 = alloca %struct.msghdr, align 8
  %5 = alloca [24 x i8], align 16
  %6 = alloca [1 x i8], align 1
  %7 = alloca [8 x i8], align 8
  store i8 0, ptr %6, align 1
  store i64 23438582706947706, ptr %7, align 8
  %.not = icmp eq ptr %1, null
  br i1 %.not, label %13, label %8

8:                                                ; preds = %2
  %9 = tail call i32 (ptr, i32, ...) @open(ptr noundef nonnull %1, i32 noundef 0) #14
  %10 = icmp slt i32 %9, 0
  br i1 %10, label %11, label %13

11:                                               ; preds = %8
  %12 = tail call i32 (i32, ptr, ...) @logg(i32 noundef 0, ptr noundef nonnull @.str.7, ptr noundef nonnull %1) #14
  br label %47

13:                                               ; preds = %2, %8
  %.0 = phi i32 [ %9, %8 ], [ 0, %2 ]
  br label %.outer.split.i

.outer.split.i:                                   ; preds = %.outer.i, %13
  %.010.ph19.i = phi i32 [ %23, %.outer.i ], [ 8, %13 ]
  %.011.ph18.i = phi ptr [ %22, %.outer.i ], [ %7, %13 ]
  %14 = zext i32 %.010.ph19.i to i64
  br label %15

15:                                               ; preds = %19, %.outer.split.i
  %16 = call i64 @send(i32 noundef %0, ptr noundef %.011.ph18.i, i64 noundef %14, i32 noundef 0) #14
  %17 = trunc i64 %16 to i32
  %18 = icmp slt i32 %17, 1
  br i1 %18, label %19, label %.outer.i

19:                                               ; preds = %15
  %.not13.i = icmp ne i32 %17, 0
  %.pre.i = tail call ptr @__errno_location() #15
  %.pre = load i32, ptr %.pre.i, align 4
  %20 = icmp eq i32 %.pre, 4
  %or.cond = select i1 %.not13.i, i1 %20, i1 false
  br i1 %or.cond, label %15, label %24

.outer.i:                                         ; preds = %15
  %21 = and i64 %16, 2147483647
  %22 = getelementptr inbounds i8, ptr %.011.ph18.i, i64 %21
  %23 = sub i32 %.010.ph19.i, %17
  %.not.i = icmp eq i32 %23, 0
  br i1 %.not.i, label %28, label %.outer.split.i

24:                                               ; preds = %19
  %25 = call ptr @strerror(i32 noundef %.pre) #14
  %26 = call i32 (i32, ptr, ...) @logg(i32 noundef 5, ptr noundef nonnull @.str, ptr noundef %25) #14
  %27 = call i32 @close(i32 noundef %.0) #14
  br label %47

28:                                               ; preds = %.outer.i
  store ptr %6, ptr %3, align 16
  %29 = getelementptr inbounds i8, ptr %3, i64 8
  store i64 1, ptr %29, align 8
  call void @llvm.memset.p0.i64(ptr noundef nonnull align 8 dereferenceable(56) %4, i8 0, i64 56, i1 false)
  %30 = getelementptr inbounds i8, ptr %4, i64 32
  store ptr %5, ptr %30, align 8
  %31 = getelementptr inbounds i8, ptr %4, i64 16
  store ptr %3, ptr %31, align 8
  %32 = getelementptr inbounds i8, ptr %4, i64 24
  store i64 1, ptr %32, align 8
  %33 = getelementptr inbounds i8, ptr %4, i64 40
  store i64 20, ptr %33, align 8
  store i64 20, ptr %5, align 16
  %34 = getelementptr inbounds i8, ptr %5, i64 8
  store i32 1, ptr %34, align 8
  %35 = getelementptr inbounds i8, ptr %5, i64 12
  store i32 1, ptr %35, align 4
  %36 = getelementptr inbounds i8, ptr %5, i64 16
  store i32 %.0, ptr %36, align 16
  %37 = call i64 @sendmsg(i32 noundef %0, ptr noundef nonnull %4, i32 noundef 0) #14
  %38 = icmp eq i64 %37, -1
  br i1 %38, label %39, label %45

39:                                               ; preds = %28
  %40 = tail call ptr @__errno_location() #15
  %41 = load i32, ptr %40, align 4
  %42 = call ptr @strerror(i32 noundef %41) #14
  %43 = call i32 (i32, ptr, ...) @logg(i32 noundef 5, ptr noundef nonnull @.str.8, ptr noundef %42) #14
  %44 = call i32 @close(i32 noundef %.0) #14
  br label %47

45:                                               ; preds = %28
  %46 = call i32 @close(i32 noundef %.0) #14
  br label %47

47:                                               ; preds = %45, %39, %24, %11
  %.013 = phi i32 [ 0, %11 ], [ -1, %24 ], [ -1, %39 ], [ 1, %45 ]
  ret i32 %.013
}